#include <math.h>
#include <stdio.h>
#include <stdlib.h>
#include <string.h>


void main()			
{
	char string[50][50]={0};
	int len[50]={0};
	int i=0,num=0,max,min;
	int maxi,mini;
	while( scanf("%s",string[i])!=EOF ){
		len[i]=strlen(string[i]);
		i++;
	}
	num=i;

	max=min=len[0];
	maxi=mini=0;
	for(i=1;i<num;i++){
		if(len[i]>max){
			max=len[i];
			maxi=i;
		}
		else if(len[i]<min){
			min=len[i];
			mini=i;
		}
	}
	printf("%s\n",string[maxi]);
	printf("%s\n",string[mini]);
}

